; Function Attrs: nounwind uwtable
define ptr @l_Array_mapMUnsafe_map___at_Lean_IR_explicitRC___spec__1(ptr noundef %0, ptr noundef %1, i64 noundef %2, i64 noundef %3, ptr noundef %4) local_unnamed_addr #0 {
  %.not58 = icmp ult i64 %3, %2
  br i1 %.not58, label %.lr.ph, label %.._crit_edge_crit_edge

.._crit_edge_crit_edge:                           ; preds = %5
  %.pre = ptrtoint ptr %1 to i64
  %.pre61 = and i64 %.pre, 1
  br label %._crit_edge

.lr.ph:                                           ; preds = %5
  %6 = ptrtoint ptr %0 to i64
  %7 = and i64 %6, 1
  %.not54 = icmp eq i64 %7, 0
  %8 = ptrtoint ptr %1 to i64
  %9 = and i64 %8, 1
  %.not55 = icmp eq i64 %9, 0
  br label %26

._crit_edge:                                      ; preds = %lean_dec.exit, %.._crit_edge_crit_edge
  %.pre-phi62 = phi i64 [ %.pre61, %.._crit_edge_crit_edge ], [ %9, %lean_dec.exit ]
  %.026.lcssa = phi ptr [ %4, %.._crit_edge_crit_edge ], [ %.0.i.i43, %lean_dec.exit ]
  %.not56 = icmp eq i64 %.pre-phi62, 0
  br i1 %.not56, label %10, label %lean_dec.exit30

10:                                               ; preds = %._crit_edge
  %11 = load i32, ptr %1, align 4, !tbaa !8
  %12 = icmp sgt i32 %11, 1
  br i1 %12, label %13, label %15, !prof !11

13:                                               ; preds = %10
  %14 = add nsw i32 %11, -1
  store i32 %14, ptr %1, align 4, !tbaa !8
  br label %lean_dec.exit30

15:                                               ; preds = %10
  %.not.i = icmp eq i32 %11, 0
  br i1 %.not.i, label %lean_dec.exit30, label %16

16:                                               ; preds = %15
  tail call void @lean_dec_ref_cold(ptr noundef nonnull %1) #6
  br label %lean_dec.exit30

lean_dec.exit30:                                  ; preds = %16, %15, %13, %._crit_edge
  %17 = ptrtoint ptr %0 to i64
  %18 = and i64 %17, 1
  %.not57 = icmp eq i64 %18, 0
  br i1 %.not57, label %19, label %82

19:                                               ; preds = %lean_dec.exit30
  %20 = load i32, ptr %0, align 4, !tbaa !8
  %21 = icmp sgt i32 %20, 1
  br i1 %21, label %22, label %24, !prof !11

22:                                               ; preds = %19
  %23 = add nsw i32 %20, -1
  store i32 %23, ptr %0, align 4, !tbaa !8
  br label %82

24:                                               ; preds = %19
  %.not.i31 = icmp eq i32 %20, 0
  br i1 %.not.i31, label %82, label %25

25:                                               ; preds = %24
  tail call void @lean_dec_ref_cold(ptr noundef nonnull %0) #6
  br label %82

26:                                               ; preds = %.lr.ph, %lean_dec.exit
  %.02460 = phi i64 [ %3, %.lr.ph ], [ %66, %lean_dec.exit ]
  %.02659 = phi ptr [ %4, %.lr.ph ], [ %.0.i.i43, %lean_dec.exit ]
  %27 = getelementptr inbounds nuw i8, ptr %.02659, i64 24
  %28 = getelementptr inbounds nuw [0 x ptr], ptr %27, i64 0, i64 %.02460
  %29 = load ptr, ptr %28, align 8, !tbaa !4
  %30 = ptrtoint ptr %29 to i64
  %31 = and i64 %30, 1
  %.not.i33 = icmp eq i64 %31, 0
  br i1 %.not.i33, label %32, label %lean_array_uget.exit

32:                                               ; preds = %26
  %.val.i.i = load i32, ptr %29, align 4, !tbaa !8
  %33 = icmp sgt i32 %.val.i.i, 0
  br i1 %33, label %34, label %36, !prof !11

34:                                               ; preds = %32
  %35 = add nuw i32 %.val.i.i, 1
  store i32 %35, ptr %29, align 4, !tbaa !8
  br label %lean_array_uget.exit

36:                                               ; preds = %32
  %.not.i.i = icmp eq i32 %.val.i.i, 0
  br i1 %.not.i.i, label %lean_array_uget.exit, label %37

37:                                               ; preds = %36
  tail call void @lean_inc_ref_cold(ptr noundef nonnull %29) #6
  br label %lean_array_uget.exit

lean_array_uget.exit:                             ; preds = %26, %34, %36, %37
  %.val.i.i34 = load i32, ptr %.02659, align 4, !tbaa !8
  %38 = icmp eq i32 %.val.i.i34, 1
  br i1 %38, label %lean_ensure_exclusive_array.exit.i, label %39

39:                                               ; preds = %lean_array_uget.exit
  %40 = tail call ptr @lean_copy_expand_array(ptr noundef nonnull %.02659, i1 noundef zeroext false) #6
  br label %lean_ensure_exclusive_array.exit.i

lean_ensure_exclusive_array.exit.i:               ; preds = %39, %lean_array_uget.exit
  %.0.i.i = phi ptr [ %40, %39 ], [ %.02659, %lean_array_uget.exit ]
  %41 = getelementptr inbounds nuw i8, ptr %.0.i.i, i64 24
  %42 = getelementptr inbounds nuw ptr, ptr %41, i64 %.02460
  %43 = load ptr, ptr %42, align 8, !tbaa !4
  %44 = ptrtoint ptr %43 to i64
  %45 = and i64 %44, 1
  %.not.i35 = icmp eq i64 %45, 0
  br i1 %.not.i35, label %46, label %lean_array_uset.exit

46:                                               ; preds = %lean_ensure_exclusive_array.exit.i
  %47 = load i32, ptr %43, align 4, !tbaa !8
  %48 = icmp sgt i32 %47, 1
  br i1 %48, label %49, label %51, !prof !11

49:                                               ; preds = %46
  %50 = add nsw i32 %47, -1
  store i32 %50, ptr %43, align 4, !tbaa !8
  br label %lean_array_uset.exit

51:                                               ; preds = %46
  %.not.i.i36 = icmp eq i32 %47, 0
  br i1 %.not.i.i36, label %lean_array_uset.exit, label %52

52:                                               ; preds = %51
  tail call void @lean_dec_ref_cold(ptr noundef nonnull %43) #6
  br label %lean_array_uset.exit

lean_array_uset.exit:                             ; preds = %lean_ensure_exclusive_array.exit.i, %49, %51, %52
  store ptr inttoptr (i64 1 to ptr), ptr %42, align 8, !tbaa !4
  br i1 %.not54, label %53, label %lean_inc.exit29

53:                                               ; preds = %lean_array_uset.exit
  %.val.i = load i32, ptr %0, align 4, !tbaa !8
  %54 = icmp sgt i32 %.val.i, 0
  br i1 %54, label %55, label %57, !prof !11

55:                                               ; preds = %53
  %56 = add nuw i32 %.val.i, 1
  store i32 %56, ptr %0, align 4, !tbaa !8
  br label %lean_inc.exit29

57:                                               ; preds = %53
  %.not.i37 = icmp eq i32 %.val.i, 0
  br i1 %.not.i37, label %lean_inc.exit29, label %58

58:                                               ; preds = %57
  tail call void @lean_inc_ref_cold(ptr noundef nonnull %0) #6
  br label %lean_inc.exit29

lean_inc.exit29:                                  ; preds = %58, %57, %55, %lean_array_uset.exit
  br i1 %.not55, label %59, label %lean_inc.exit

59:                                               ; preds = %lean_inc.exit29
  %.val.i38 = load i32, ptr %1, align 4, !tbaa !8
  %60 = icmp sgt i32 %.val.i38, 0
  br i1 %60, label %61, label %63, !prof !11

61:                                               ; preds = %59
  %62 = add nuw i32 %.val.i38, 1
  store i32 %62, ptr %1, align 4, !tbaa !8
  br label %lean_inc.exit

63:                                               ; preds = %59
  %.not.i39 = icmp eq i32 %.val.i38, 0
  br i1 %.not.i39, label %lean_inc.exit, label %64

64:                                               ; preds = %63
  tail call void @lean_inc_ref_cold(ptr noundef nonnull %1) #6
  br label %lean_inc.exit

lean_inc.exit:                                    ; preds = %64, %63, %61, %lean_inc.exit29
  %65 = tail call ptr @l_Lean_IR_ExplicitRC_visitDecl(ptr noundef %1, ptr noundef %0, ptr noundef %29)
  %66 = add nuw i64 %.02460, 1
  %.val.i.i41 = load i32, ptr %.0.i.i, align 4, !tbaa !8
  %67 = icmp eq i32 %.val.i.i41, 1
  br i1 %67, label %lean_ensure_exclusive_array.exit.i42, label %68

68:                                               ; preds = %lean_inc.exit
  %69 = tail call ptr @lean_copy_expand_array(ptr noundef nonnull %.0.i.i, i1 noundef zeroext false) #6
  br label %lean_ensure_exclusive_array.exit.i42

lean_ensure_exclusive_array.exit.i42:             ; preds = %68, %lean_inc.exit
  %.0.i.i43 = phi ptr [ %69, %68 ], [ %.0.i.i, %lean_inc.exit ]
  %70 = getelementptr inbounds nuw i8, ptr %.0.i.i43, i64 24
  %71 = getelementptr inbounds nuw ptr, ptr %70, i64 %.02460
  %72 = load ptr, ptr %71, align 8, !tbaa !4
  %73 = ptrtoint ptr %72 to i64
  %74 = and i64 %73, 1
  %.not.i44 = icmp eq i64 %74, 0
  br i1 %.not.i44, label %75, label %lean_dec.exit

75:                                               ; preds = %lean_ensure_exclusive_array.exit.i42
  %76 = load i32, ptr %72, align 4, !tbaa !8
  %77 = icmp sgt i32 %76, 1
  br i1 %77, label %78, label %80, !prof !11

78:                                               ; preds = %75
  %79 = add nsw i32 %76, -1
  store i32 %79, ptr %72, align 4, !tbaa !8
  br label %lean_dec.exit

80:                                               ; preds = %75
  %.not.i.i45 = icmp eq i32 %76, 0
  br i1 %.not.i.i45, label %lean_dec.exit, label %81

81:                                               ; preds = %80
  tail call void @lean_dec_ref_cold(ptr noundef nonnull %72) #6
  br label %lean_dec.exit

lean_dec.exit:                                    ; preds = %81, %80, %78, %lean_ensure_exclusive_array.exit.i42
  store ptr %65, ptr %71, align 8, !tbaa !4
  %exitcond.not = icmp eq i64 %66, %2
  br i1 %exitcond.not, label %._crit_edge, label %26

82:                                               ; preds = %25, %24, %22, %lean_dec.exit30
  ret ptr %.026.lcssa
}